target datalayout = "e-m:e-p270:32:32-p271:32:32-p272:64:64-i64:64-i128:128-f80:128-n8:16:32:64-S128"
target triple = "x86_64-pc-linux-gnu"

%struct.nghttp2_option = type { i64, i64, i64, i64, i64, i64, i64, i32, i32, i32, i32, i32, i32, i32, i32, i32, i32, i32, [32 x i8] }

; Function Attrs: nounwind uwtable
define internal void @set_ext_type(ptr noundef %0, i8 noundef zeroext %1) #0 {
  %3 = alloca ptr, align 8
  %4 = alloca i8, align 1
  store ptr %0, ptr %3, align 8, !tbaa !22
  store i8 %1, ptr %4, align 1, !tbaa !21
  %5 = load ptr, ptr %3, align 8, !tbaa !22
  %6 = load i8, ptr %4, align 1, !tbaa !21
  %7 = zext i8 %6 to i32
  %8 = sdiv i32 %7, 8
  %9 = sext i32 %8 to i64
  %10 = getelementptr inbounds i8, ptr %5, i64 %9
  %11 = load i8, ptr %10, align 1, !tbaa !21
  %12 = zext i8 %11 to i32
  %13 = load i8, ptr %4, align 1, !tbaa !21
  %14 = zext i8 %13 to i32
  %15 = and i32 %14, 7
  %16 = shl i32 1, %15
  %17 = or i32 %12, %16
  %18 = trunc i32 %17 to i8
  %19 = load ptr, ptr %3, align 8, !tbaa !22
  %20 = load i8, ptr %4, align 1, !tbaa !21
  %21 = zext i8 %20 to i32
  %22 = sdiv i32 %21, 8
  %23 = sext i32 %22 to i64
  %24 = getelementptr inbounds i8, ptr %19, i64 %23
  store i8 %18, ptr %24, align 1, !tbaa !21
  ret void
}

; Function Attrs: nounwind uwtable
define void @nghttp2_option_set_user_recv_extension_type(ptr noundef %0, i8 noundef zeroext %1) #0 {
  %3 = alloca ptr, align 8
  %4 = alloca i8, align 1
  store ptr %0, ptr %3, align 8, !tbaa !9
  store i8 %1, ptr %4, align 1, !tbaa !21
  %5 = load i8, ptr %4, align 1, !tbaa !21
  %6 = zext i8 %5 to i32
  %7 = icmp slt i32 %6, 10
  br i1 %7, label %8, label %9

8:                                                ; preds = %2
  br label %18

9:                                                ; preds = %2
  %10 = load ptr, ptr %3, align 8, !tbaa !9
  %11 = getelementptr inbounds nuw %struct.nghttp2_option, ptr %10, i32 0, i32 7
  %12 = load i32, ptr %11, align 8, !tbaa !13
  %13 = or i32 %12, 32
  store i32 %13, ptr %11, align 8, !tbaa !13
  %14 = load ptr, ptr %3, align 8, !tbaa !9
  %15 = getelementptr inbounds nuw %struct.nghttp2_option, ptr %14, i32 0, i32 18
  %16 = getelementptr inbounds [32 x i8], ptr %15, i64 0, i64 0
  %17 = load i8, ptr %4, align 1, !tbaa !21
  call void @set_ext_type(ptr noundef %16, i8 noundef zeroext %17)
  br label %18

18:                                               ; preds = %9, %8
  ret void
}