; Function Attrs: mustprogress nofree norecurse nosync nounwind willreturn memory(argmem: readwrite) uwtable
define void @nghttp2_option_set_user_recv_extension_type(ptr noundef captures(none) %0, i8 noundef zeroext %1) local_unnamed_addr #4 {
  %3 = icmp ult i8 %1, 10
  br i1 %3, label %16, label %4

4:                                                ; preds = %2
  %5 = getelementptr inbounds nuw i8, ptr %0, i64 56
  %6 = load i32, ptr %5, align 8, !tbaa !8
  %7 = or i32 %6, 32
  store i32 %7, ptr %5, align 8, !tbaa !8
  %8 = getelementptr inbounds nuw i8, ptr %0, i64 100
  %9 = lshr i8 %1, 3
  %10 = zext nneg i8 %9 to i64
  %11 = getelementptr inbounds nuw i8, ptr %8, i64 %10
  %12 = load i8, ptr %11, align 1, !tbaa !17
  %13 = and i8 %1, 7
  %14 = shl nuw i8 1, %13
  %15 = or i8 %12, %14
  store i8 %15, ptr %11, align 1, !tbaa !17
  br label %16

16:                                               ; preds = %2, %4
  ret void
}